; Function Attrs: mustprogress nofree norecurse nosync nounwind willreturn memory(argmem: readwrite) uwtable
define void @_ZN18OpenImageIO_v2_6_09ImageSpec10set_formatENS_8TypeDescE(ptr nocapture noundef nonnull align 8 dereferenceable(160) %this, ptr nocapture noundef readonly %fmt) local_unnamed_addr #9 align 2 personality ptr @__gxx_personality_v0 {
entry:
  %format = getelementptr inbounds i8, ptr %this, i64 64
  %0 = load i64, ptr %fmt, align 4
  store i64 %0, ptr %format, align 8
  %channelformats = getelementptr inbounds i8, ptr %this, i64 72
  %1 = load ptr, ptr %channelformats, align 8
  %_M_finish.i.i = getelementptr inbounds i8, ptr %this, i64 80
  %2 = load ptr, ptr %_M_finish.i.i, align 8
  %tobool.not.i.i = icmp eq ptr %2, %1
  br i1 %tobool.not.i.i, label %_ZNSt6vectorIN18OpenImageIO_v2_6_08TypeDescESaIS1_EE5clearEv.exit, label %invoke.cont.i.i

invoke.cont.i.i:                                  ; preds = %entry
  store ptr %1, ptr %_M_finish.i.i, align 8
  br label %_ZNSt6vectorIN18OpenImageIO_v2_6_08TypeDescESaIS1_EE5clearEv.exit

_ZNSt6vectorIN18OpenImageIO_v2_6_08TypeDescESaIS1_EE5clearEv.exit: ; preds = %entry, %invoke.cont.i.i
  ret void
}